target datalayout = "e-m:e-p270:32:32-p271:32:32-p272:64:64-i64:64-i128:128-f80:128-n8:16:32:64-S128"
target triple = "x86_64-pc-linux-gnu"

%class.GrowableArrayBase = type { i32, i32 }
%class.GrowableArrayMetadata = type { i64 }
%class.ciMetadata = type { %class.ciBaseObject.base, ptr }
%class.ciBaseObject.base = type <{ ptr, i32 }>
%"class.ciTypeFlow::Block" = type { ptr, ptr, ptr, ptr, %class.GrowableArray.0, ptr, ptr, i32, i32, i32, i32, i8, i8, i8, i8, i8, ptr, ptr, ptr }
%class.GrowableArray.0 = type { %class.GrowableArrayWithAllocator.1, %class.GrowableArrayMetadata }
%class.GrowableArrayWithAllocator.1 = type { %class.GrowableArrayView.2 }
%class.GrowableArrayView.2 = type { %class.GrowableArrayBase, ptr }
%"class.ciTypeFlow::SuccIter" = type { ptr, i32, ptr }
%class.GrowableArrayView.8 = type { %class.GrowableArrayBase, ptr }

; Function Attrs: mustprogress nounwind uwtable
define linkonce_odr hidden noundef zeroext i1 @_ZNK10ciMetadata9is_loadedEv(ptr noundef nonnull align 8 dereferenceable(24) %0) #1 comdat align 2 {
  %2 = alloca ptr, align 8
  store ptr %0, ptr %2, align 8
  %3 = load ptr, ptr %2, align 8
  %4 = getelementptr inbounds %class.ciMetadata, ptr %3, i32 0, i32 1
  %5 = load ptr, ptr %4, align 8
  %6 = icmp ne ptr %5, null
  br i1 %6, label %12, label %7

7:                                                ; preds = %1
  %8 = load ptr, ptr %3, align 8
  %9 = getelementptr inbounds ptr, ptr %8, i64 4
  %10 = load ptr, ptr %9, align 8
  %11 = call noundef zeroext i1 %10(ptr noundef nonnull align 8 dereferenceable(24) %3)
  br label %12

12:                                               ; preds = %7, %1
  %13 = phi i1 [ true, %1 ], [ %11, %7 ]
  ret i1 %13
}

; Function Attrs: mustprogress nounwind uwtable
define linkonce_odr hidden noundef nonnull align 8 dereferenceable(8) ptr @_ZN17GrowableArrayViewIP15ciInstanceKlassE2atEi(ptr noundef nonnull align 8 dereferenceable(16) %0, i32 noundef %1) #1 comdat align 2 {
  %3 = alloca ptr, align 8
  %4 = alloca i32, align 4
  store ptr %0, ptr %3, align 8
  store i32 %1, ptr %4, align 4
  %5 = load ptr, ptr %3, align 8
  %6 = getelementptr inbounds %class.GrowableArrayView.8, ptr %5, i32 0, i32 1
  %7 = load ptr, ptr %6, align 8
  %8 = load i32, ptr %4, align 4
  %9 = sext i32 %8 to i64
  %10 = getelementptr inbounds ptr, ptr %7, i64 %9
  ret ptr %10
}

; Function Attrs: mustprogress nounwind uwtable
define linkonce_odr hidden noundef ptr @_ZN10ciTypeFlow5Block11exc_klassesEv(ptr noundef nonnull align 8 dereferenceable(120) %0) #1 comdat align 2 {
  %2 = alloca ptr, align 8
  store ptr %0, ptr %2, align 8
  %3 = load ptr, ptr %2, align 8
  %4 = getelementptr inbounds %"class.ciTypeFlow::Block", ptr %3, i32 0, i32 2
  %5 = load ptr, ptr %4, align 8
  %6 = icmp eq ptr %5, null
  br i1 %6, label %7, label %8

7:                                                ; preds = %1
  call void @_ZN10ciTypeFlow5Block18compute_exceptionsEv(ptr noundef nonnull align 8 dereferenceable(120) %3)
  br label %8

8:                                                ; preds = %7, %1
  %9 = getelementptr inbounds %"class.ciTypeFlow::Block", ptr %3, i32 0, i32 2
  %10 = load ptr, ptr %9, align 8
  ret ptr %10
}

; Function Attrs: mustprogress nounwind uwtable
define linkonce_odr hidden noundef ptr @_ZN10ciTypeFlow5Block10exceptionsEv(ptr noundef nonnull align 8 dereferenceable(120) %0) #1 comdat align 2 {
  %2 = alloca ptr, align 8
  store ptr %0, ptr %2, align 8
  %3 = load ptr, ptr %2, align 8
  %4 = getelementptr inbounds %"class.ciTypeFlow::Block", ptr %3, i32 0, i32 1
  %5 = load ptr, ptr %4, align 8
  %6 = icmp eq ptr %5, null
  br i1 %6, label %7, label %8

7:                                                ; preds = %1
  call void @_ZN10ciTypeFlow5Block18compute_exceptionsEv(ptr noundef nonnull align 8 dereferenceable(120) %3)
  br label %8

8:                                                ; preds = %7, %1
  %9 = getelementptr inbounds %"class.ciTypeFlow::Block", ptr %3, i32 0, i32 1
  %10 = load ptr, ptr %9, align 8
  ret ptr %10
}

; Function Attrs: mustprogress nounwind uwtable
define linkonce_odr hidden noundef nonnull align 8 dereferenceable(8) ptr @_ZN17GrowableArrayViewIPN10ciTypeFlow5BlockEE2atEi(ptr noundef nonnull align 8 dereferenceable(16) %0, i32 noundef %1) #1 comdat align 2 {
  %3 = alloca ptr, align 8
  %4 = alloca i32, align 4
  store ptr %0, ptr %3, align 8
  store i32 %1, ptr %4, align 4
  %5 = load ptr, ptr %3, align 8
  %6 = getelementptr inbounds %class.GrowableArrayView.2, ptr %5, i32 0, i32 1
  %7 = load ptr, ptr %6, align 8
  %8 = load i32, ptr %4, align 4
  %9 = sext i32 %8 to i64
  %10 = getelementptr inbounds ptr, ptr %7, i64 %9
  ret ptr %10
}

; Function Attrs: mustprogress nounwind uwtable
define linkonce_odr hidden noundef i32 @_ZNK17GrowableArrayBase6lengthEv(ptr noundef nonnull align 4 dereferenceable(8) %0) #1 comdat align 2 {
  %2 = alloca ptr, align 8
  store ptr %0, ptr %2, align 8
  %3 = load ptr, ptr %2, align 8
  %4 = getelementptr inbounds %class.GrowableArrayBase, ptr %3, i32 0, i32 0
  %5 = load i32, ptr %4, align 4
  ret i32 %5
}

; Function Attrs: mustprogress nounwind uwtable
define linkonce_odr hidden noundef ptr @_ZN10ciTypeFlow5Block10successorsEv(ptr noundef nonnull align 8 dereferenceable(120) %0) #1 comdat align 2 {
  %2 = alloca ptr, align 8
  store ptr %0, ptr %2, align 8
  %3 = load ptr, ptr %2, align 8
  %4 = getelementptr inbounds %"class.ciTypeFlow::Block", ptr %3, i32 0, i32 3
  %5 = load ptr, ptr %4, align 8
  ret ptr %5
}

; Function Attrs: mustprogress nounwind uwtable
define hidden void @_ZN10ciTypeFlow8SuccIter4nextEv(ptr noundef nonnull align 8 dereferenceable(24) %0) #1 align 2 {
  %2 = alloca ptr, align 8
  %3 = alloca i32, align 4
  %4 = alloca i32, align 4
  %5 = alloca i32, align 4
  %6 = alloca ptr, align 8
  store ptr %0, ptr %2, align 8
  %7 = load ptr, ptr %2, align 8
  %8 = getelementptr inbounds %"class.ciTypeFlow::SuccIter", ptr %7, i32 0, i32 0
  %9 = load ptr, ptr %8, align 8
  %10 = call noundef ptr @_ZN10ciTypeFlow5Block10successorsEv(ptr noundef nonnull align 8 dereferenceable(120) %9)
  %11 = call noundef i32 @_ZNK17GrowableArrayBase6lengthEv(ptr noundef nonnull align 4 dereferenceable(8) %10)
  store i32 %11, ptr %3, align 4
  %12 = getelementptr inbounds %"class.ciTypeFlow::SuccIter", ptr %7, i32 0, i32 1
  %13 = load i32, ptr %12, align 8
  %14 = add nsw i32 %13, 1
  store i32 %14, ptr %4, align 4
  %15 = load i32, ptr %4, align 4
  %16 = load i32, ptr %3, align 4
  %17 = icmp slt i32 %15, %16
  br i1 %17, label %18, label %28

18:                                               ; preds = %1
  %19 = load i32, ptr %4, align 4
  %20 = getelementptr inbounds %"class.ciTypeFlow::SuccIter", ptr %7, i32 0, i32 1
  store i32 %19, ptr %20, align 8
  %21 = getelementptr inbounds %"class.ciTypeFlow::SuccIter", ptr %7, i32 0, i32 0
  %22 = load ptr, ptr %21, align 8
  %23 = call noundef ptr @_ZN10ciTypeFlow5Block10successorsEv(ptr noundef nonnull align 8 dereferenceable(120) %22)
  %24 = load i32, ptr %4, align 4
  %25 = call noundef nonnull align 8 dereferenceable(8) ptr @_ZN17GrowableArrayViewIPN10ciTypeFlow5BlockEE2atEi(ptr noundef nonnull align 8 dereferenceable(16) %23, i32 noundef %24)
  %26 = load ptr, ptr %25, align 8
  %27 = getelementptr inbounds %"class.ciTypeFlow::SuccIter", ptr %7, i32 0, i32 2
  store ptr %26, ptr %27, align 8
  br label %67

28:                                               ; preds = %1
  %29 = load i32, ptr %4, align 4
  %30 = load i32, ptr %3, align 4
  %31 = sub nsw i32 %29, %30
  store i32 %31, ptr %5, align 4
  br label %32

32:                                               ; preds = %61, %28
  %33 = load i32, ptr %5, align 4
  %34 = getelementptr inbounds %"class.ciTypeFlow::SuccIter", ptr %7, i32 0, i32 0
  %35 = load ptr, ptr %34, align 8
  %36 = call noundef ptr @_ZN10ciTypeFlow5Block10exceptionsEv(ptr noundef nonnull align 8 dereferenceable(120) %35)
  %37 = call noundef i32 @_ZNK17GrowableArrayBase6lengthEv(ptr noundef nonnull align 4 dereferenceable(8) %36)
  %38 = icmp slt i32 %33, %37
  br i1 %38, label %39, label %64

39:                                               ; preds = %32
  %40 = getelementptr inbounds %"class.ciTypeFlow::SuccIter", ptr %7, i32 0, i32 0
  %41 = load ptr, ptr %40, align 8
  %42 = call noundef ptr @_ZN10ciTypeFlow5Block11exc_klassesEv(ptr noundef nonnull align 8 dereferenceable(120) %41)
  %43 = load i32, ptr %5, align 4
  %44 = call noundef nonnull align 8 dereferenceable(8) ptr @_ZN17GrowableArrayViewIP15ciInstanceKlassE2atEi(ptr noundef nonnull align 8 dereferenceable(16) %42, i32 noundef %43)
  %45 = load ptr, ptr %44, align 8
  store ptr %45, ptr %6, align 8
  %46 = load ptr, ptr %6, align 8
  %47 = call noundef zeroext i1 @_ZNK10ciMetadata9is_loadedEv(ptr noundef nonnull align 8 dereferenceable(24) %46)
  br i1 %47, label %48, label %58

48:                                               ; preds = %39
  %49 = load i32, ptr %4, align 4
  %50 = getelementptr inbounds %"class.ciTypeFlow::SuccIter", ptr %7, i32 0, i32 1
  store i32 %49, ptr %50, align 8
  %51 = getelementptr inbounds %"class.ciTypeFlow::SuccIter", ptr %7, i32 0, i32 0
  %52 = load ptr, ptr %51, align 8
  %53 = call noundef ptr @_ZN10ciTypeFlow5Block10exceptionsEv(ptr noundef nonnull align 8 dereferenceable(120) %52)
  %54 = load i32, ptr %5, align 4
  %55 = call noundef nonnull align 8 dereferenceable(8) ptr @_ZN17GrowableArrayViewIPN10ciTypeFlow5BlockEE2atEi(ptr noundef nonnull align 8 dereferenceable(16) %53, i32 noundef %54)
  %56 = load ptr, ptr %55, align 8
  %57 = getelementptr inbounds %"class.ciTypeFlow::SuccIter", ptr %7, i32 0, i32 2
  store ptr %56, ptr %57, align 8
  br label %67

58:                                               ; preds = %39
  %59 = load i32, ptr %4, align 4
  %60 = add nsw i32 %59, 1
  store i32 %60, ptr %4, align 4
  br label %61

61:                                               ; preds = %58
  %62 = load i32, ptr %5, align 4
  %63 = add nsw i32 %62, 1
  store i32 %63, ptr %5, align 4
  br label %32, !llvm.loop !25

64:                                               ; preds = %32
  %65 = getelementptr inbounds %"class.ciTypeFlow::SuccIter", ptr %7, i32 0, i32 1
  store i32 -1, ptr %65, align 8
  %66 = getelementptr inbounds %"class.ciTypeFlow::SuccIter", ptr %7, i32 0, i32 2
  store ptr null, ptr %66, align 8
  br label %67

67:                                               ; preds = %64, %48, %18
  ret void
}