; Function Attrs: mustprogress nounwind uwtable
define hidden void @_ZN10ciTypeFlow8SuccIter4nextEv(ptr nocapture noundef nonnull align 8 dereferenceable(24) %0) local_unnamed_addr #0 align 2 {
  %2 = load ptr, ptr %0, align 8
  %3 = getelementptr inbounds i8, ptr %2, i64 24
  %4 = load ptr, ptr %3, align 8
  %5 = load i32, ptr %4, align 4
  %6 = getelementptr inbounds i8, ptr %0, i64 8
  %7 = load i32, ptr %6, align 8
  %8 = add nsw i32 %7, 1
  %9 = icmp slt i32 %8, %5
  br i1 %9, label %10, label %17

10:                                               ; preds = %1
  store i32 %8, ptr %6, align 8
  %11 = load ptr, ptr %3, align 8
  %12 = getelementptr inbounds i8, ptr %11, i64 8
  %13 = load ptr, ptr %12, align 8
  %14 = sext i32 %8 to i64
  %15 = getelementptr inbounds ptr, ptr %13, i64 %14
  %16 = load ptr, ptr %15, align 8
  br label %60

17:                                               ; preds = %1
  %18 = sub i32 %8, %5
  %19 = sext i32 %18 to i64
  br label %20

20:                                               ; preds = %57, %17
  %21 = phi ptr [ %.pre23, %57 ], [ %2, %17 ]
  %indvars.iv = phi i64 [ %indvars.iv.next, %57 ], [ %19, %17 ]
  %.0 = phi i32 [ %58, %57 ], [ %8, %17 ]
  %22 = getelementptr inbounds i8, ptr %21, i64 8
  %23 = load ptr, ptr %22, align 8
  %24 = icmp eq ptr %23, null
  br i1 %24, label %25, label %_ZN10ciTypeFlow5Block10exceptionsEv.exit

25:                                               ; preds = %20
  tail call void @_ZN10ciTypeFlow5Block18compute_exceptionsEv(ptr noundef nonnull align 8 dereferenceable(120) %21)
  %.pre.i = load ptr, ptr %22, align 8
  br label %_ZN10ciTypeFlow5Block10exceptionsEv.exit

_ZN10ciTypeFlow5Block10exceptionsEv.exit:         ; preds = %20, %25
  %26 = phi ptr [ %.pre.i, %25 ], [ %23, %20 ]
  %27 = load i32, ptr %26, align 4
  %28 = sext i32 %27 to i64
  %29 = icmp slt i64 %indvars.iv, %28
  br i1 %29, label %30, label %59

30:                                               ; preds = %_ZN10ciTypeFlow5Block10exceptionsEv.exit
  %31 = load ptr, ptr %0, align 8
  %32 = getelementptr inbounds i8, ptr %31, i64 16
  %33 = load ptr, ptr %32, align 8
  %34 = icmp eq ptr %33, null
  br i1 %34, label %35, label %_ZN10ciTypeFlow5Block11exc_klassesEv.exit

35:                                               ; preds = %30
  tail call void @_ZN10ciTypeFlow5Block18compute_exceptionsEv(ptr noundef nonnull align 8 dereferenceable(120) %31)
  %.pre.i16 = load ptr, ptr %32, align 8
  br label %_ZN10ciTypeFlow5Block11exc_klassesEv.exit

_ZN10ciTypeFlow5Block11exc_klassesEv.exit:        ; preds = %30, %35
  %36 = phi ptr [ %.pre.i16, %35 ], [ %33, %30 ]
  %37 = getelementptr inbounds i8, ptr %36, i64 8
  %38 = load ptr, ptr %37, align 8
  %39 = getelementptr inbounds ptr, ptr %38, i64 %indvars.iv
  %40 = load ptr, ptr %39, align 8
  %41 = getelementptr inbounds i8, ptr %40, i64 16
  %42 = load ptr, ptr %41, align 8
  %.not.i = icmp eq ptr %42, null
  br i1 %.not.i, label %_ZNK10ciMetadata9is_loadedEv.exit, label %_ZN10ciTypeFlow5Block11exc_klassesEv.exit._ZNK10ciMetadata9is_loadedEv.exit.thread_crit_edge

_ZN10ciTypeFlow5Block11exc_klassesEv.exit._ZNK10ciMetadata9is_loadedEv.exit.thread_crit_edge: ; preds = %_ZN10ciTypeFlow5Block11exc_klassesEv.exit
  %.pre22 = load ptr, ptr %0, align 8
  br label %_ZNK10ciMetadata9is_loadedEv.exit.thread

_ZNK10ciMetadata9is_loadedEv.exit:                ; preds = %_ZN10ciTypeFlow5Block11exc_klassesEv.exit
  %43 = load ptr, ptr %40, align 8
  %44 = getelementptr inbounds i8, ptr %43, i64 32
  %45 = load ptr, ptr %44, align 8
  %46 = tail call noundef zeroext i1 %45(ptr noundef nonnull align 8 dereferenceable(24) %40) #14
  %.pre23 = load ptr, ptr %0, align 8
  br i1 %46, label %_ZNK10ciMetadata9is_loadedEv.exit.thread, label %57

_ZNK10ciMetadata9is_loadedEv.exit.thread:         ; preds = %_ZNK10ciMetadata9is_loadedEv.exit, %_ZN10ciTypeFlow5Block11exc_klassesEv.exit._ZNK10ciMetadata9is_loadedEv.exit.thread_crit_edge
  %47 = phi ptr [ %.pre22, %_ZN10ciTypeFlow5Block11exc_klassesEv.exit._ZNK10ciMetadata9is_loadedEv.exit.thread_crit_edge ], [ %.pre23, %_ZNK10ciMetadata9is_loadedEv.exit ]
  store i32 %.0, ptr %6, align 8
  %48 = getelementptr inbounds i8, ptr %47, i64 8
  %49 = load ptr, ptr %48, align 8
  %50 = icmp eq ptr %49, null
  br i1 %50, label %51, label %_ZN10ciTypeFlow5Block10exceptionsEv.exit18

51:                                               ; preds = %_ZNK10ciMetadata9is_loadedEv.exit.thread
  tail call void @_ZN10ciTypeFlow5Block18compute_exceptionsEv(ptr noundef nonnull align 8 dereferenceable(120) %47)
  %.pre.i17 = load ptr, ptr %48, align 8
  br label %_ZN10ciTypeFlow5Block10exceptionsEv.exit18

_ZN10ciTypeFlow5Block10exceptionsEv.exit18:       ; preds = %_ZNK10ciMetadata9is_loadedEv.exit.thread, %51
  %52 = phi ptr [ %.pre.i17, %51 ], [ %49, %_ZNK10ciMetadata9is_loadedEv.exit.thread ]
  %53 = getelementptr inbounds i8, ptr %52, i64 8
  %54 = load ptr, ptr %53, align 8
  %55 = getelementptr inbounds ptr, ptr %54, i64 %indvars.iv
  %56 = load ptr, ptr %55, align 8
  br label %60

57:                                               ; preds = %_ZNK10ciMetadata9is_loadedEv.exit
  %58 = add nsw i32 %.0, 1
  %indvars.iv.next = add nsw i64 %indvars.iv, 1
  br label %20, !llvm.loop !25

59:                                               ; preds = %_ZN10ciTypeFlow5Block10exceptionsEv.exit
  store i32 -1, ptr %6, align 8
  br label %60

60:                                               ; preds = %59, %_ZN10ciTypeFlow5Block10exceptionsEv.exit18, %10
  %.sink = phi ptr [ null, %59 ], [ %56, %_ZN10ciTypeFlow5Block10exceptionsEv.exit18 ], [ %16, %10 ]
  %61 = getelementptr inbounds i8, ptr %0, i64 16
  store ptr %.sink, ptr %61, align 8
  ret void
}